; ModuleID = '50/62.c'
source_filename = "50/62.c"
target datalayout = "e-m:e-p270:32:32-p271:32:32-p272:64:64-i64:64-f80:128-n8:16:32:64-S128"
target triple = "x86_64-pc-linux-gnu"

@.str = private unnamed_addr constant [3 x i8] c"%d\00", align 1
@__const.main.p = private unnamed_addr constant [13 x i32] [i32 0, i32 31, i32 28, i32 31, i32 30, i32 31, i32 30, i32 31, i32 31, i32 30, i32 31, i32 30, i32 31], align 16
@.str.1 = private unnamed_addr constant [4 x i8] c"%d\0A\00", align 1

; Function Attrs: noinline nounwind uwtable
define dso_local i32 @main(i32 %0, i8** %1) #0 {
  %3 = alloca i32, align 4
  %4 = alloca i32, align 4
  %5 = alloca i8**, align 8
  %6 = alloca i32, align 4
  %7 = alloca i32, align 4
  %8 = alloca i32, align 4
  %9 = alloca [13 x i32], align 16
  store i32 0, i32* %3, align 4
  store i32 %0, i32* %4, align 4
  store i8** %1, i8*** %5, align 8
  store i32 12, i32* %7, align 4
  %10 = call i32 (i8*, ...) @__isoc99_scanf(i8* getelementptr inbounds ([3 x i8], [3 x i8]* @.str, i64 0, i64 0), i32* %6)
  %11 = bitcast [13 x i32]* %9 to i8*
  call void @llvm.memcpy.p0i8.p0i8.i64(i8* align 16 %11, i8* align 16 bitcast ([13 x i32]* @__const.main.p to i8*), i64 52, i1 false)
  store i32 0, i32* %8, align 4
  br label %12

12:                                               ; preds = %38, %2
  %13 = load i32, i32* %8, align 4
  %14 = icmp slt i32 %13, 13
  br i1 %14, label %15, label %41

15:                                               ; preds = %12
  %16 = load i32, i32* %8, align 4
  %17 = sext i32 %16 to i64
  %18 = getelementptr inbounds [13 x i32], [13 x i32]* %9, i64 0, i64 %17
  %19 = load i32, i32* %18, align 4
  %20 = load i32, i32* %7, align 4
  %21 = add nsw i32 %20, %19
  store i32 %21, i32* %7, align 4
  %22 = load i32, i32* %7, align 4
  %23 = srem i32 %22, 7
  %24 = load i32, i32* %6, align 4
  %25 = add nsw i32 %23, %24
  %26 = icmp eq i32 %25, 5
  br i1 %26, label %33, label %27

27:                                               ; preds = %15
  %28 = load i32, i32* %7, align 4
  %29 = srem i32 %28, 7
  %30 = load i32, i32* %6, align 4
  %31 = add nsw i32 %29, %30
  %32 = icmp eq i32 %31, 12
  br i1 %32, label %33, label %37

33:                                               ; preds = %27, %15
  %34 = load i32, i32* %8, align 4
  %35 = add nsw i32 %34, 1
  %36 = call i32 (i8*, ...) @printf(i8* getelementptr inbounds ([4 x i8], [4 x i8]* @.str.1, i64 0, i64 0), i32 %35)
  br label %37

37:                                               ; preds = %33, %27
  br label %38

38:                                               ; preds = %37
  %39 = load i32, i32* %8, align 4
  %40 = add nsw i32 %39, 1
  store i32 %40, i32* %8, align 4
  br label %12

41:                                               ; preds = %12
  %42 = load i32, i32* %3, align 4
  ret i32 %42
}

declare dso_local i32 @__isoc99_scanf(i8*, ...) #1

; Function Attrs: argmemonly nounwind willreturn
declare void @llvm.memcpy.p0i8.p0i8.i64(i8* noalias nocapture writeonly, i8* noalias nocapture readonly, i64, i1 immarg) #2

declare dso_local i32 @printf(i8*, ...) #1


!llvm.module.flags = !{!0}
!llvm.ident = !{!1}

!0 = !{i32 1, !"wchar_size", i32 4}
!1 = !{!"clang version 10.0.0-4ubuntu1 "}
